#include <math.h>
#include <stdio.h>
#include <stdlib.h>
#include <string.h>

int main()
{
	int k;
	scanf("%d",&k);
	double x[100],n[100],sum1[100],sum2[100],s[100];
	int i,j;
    for(i=0;i<k;i++){
    sum1[i]=0;
    sum2[i]=0;
    s[i]=0;
}
    for(i=0;i<k;i++){
    scanf("%lf",&(n[i]));
    for(j=0;j<n[i];j++){
    scanf("%lf",&(x[j]));
    sum1[i]+=x[j];
}
for(j=0;j<n[i];j++){
    sum2[i]+=pow(x[j]-sum1[i]/n[i],2);
    s[i]=sqrt(sum2[i]/n[i]);
}
}
    for(i=0;i<k;i++){       
    printf("%.5lf\n",s[i]);
}
    return 0;
}	
