; ModuleID = '38/956.c'
source_filename = "38/956.c"
target datalayout = "e-m:e-p270:32:32-p271:32:32-p272:64:64-i64:64-f80:128-n8:16:32:64-S128"
target triple = "x86_64-pc-linux-gnu"

@.str = private unnamed_addr constant [3 x i8] c"%d\00", align 1
@.str.1 = private unnamed_addr constant [4 x i8] c"%lf\00", align 1
@.str.2 = private unnamed_addr constant [7 x i8] c"%.5lf\0A\00", align 1

; Function Attrs: noinline nounwind uwtable
define dso_local i32 @main() #0 {
  %1 = alloca i32, align 4
  %2 = alloca i32, align 4
  %3 = alloca [100 x double], align 16
  %4 = alloca [100 x double], align 16
  %5 = alloca [100 x double], align 16
  %6 = alloca [100 x double], align 16
  %7 = alloca [100 x double], align 16
  %8 = alloca i32, align 4
  %9 = alloca i32, align 4
  store i32 0, i32* %1, align 4
  %10 = call i32 (i8*, ...) @__isoc99_scanf(i8* getelementptr inbounds ([3 x i8], [3 x i8]* @.str, i64 0, i64 0), i32* %2)
  store i32 0, i32* %8, align 4
  br label %11

11:                                               ; preds = %25, %0
  %12 = load i32, i32* %8, align 4
  %13 = load i32, i32* %2, align 4
  %14 = icmp slt i32 %12, %13
  br i1 %14, label %15, label %28

15:                                               ; preds = %11
  %16 = load i32, i32* %8, align 4
  %17 = sext i32 %16 to i64
  %18 = getelementptr inbounds [100 x double], [100 x double]* %5, i64 0, i64 %17
  store double 0.000000e+00, double* %18, align 8
  %19 = load i32, i32* %8, align 4
  %20 = sext i32 %19 to i64
  %21 = getelementptr inbounds [100 x double], [100 x double]* %6, i64 0, i64 %20
  store double 0.000000e+00, double* %21, align 8
  %22 = load i32, i32* %8, align 4
  %23 = sext i32 %22 to i64
  %24 = getelementptr inbounds [100 x double], [100 x double]* %7, i64 0, i64 %23
  store double 0.000000e+00, double* %24, align 8
  br label %25

25:                                               ; preds = %15
  %26 = load i32, i32* %8, align 4
  %27 = add nsw i32 %26, 1
  store i32 %27, i32* %8, align 4
  br label %11

28:                                               ; preds = %11
  store i32 0, i32* %8, align 4
  br label %29

29:                                               ; preds = %110, %28
  %30 = load i32, i32* %8, align 4
  %31 = load i32, i32* %2, align 4
  %32 = icmp slt i32 %30, %31
  br i1 %32, label %33, label %113

33:                                               ; preds = %29
  %34 = load i32, i32* %8, align 4
  %35 = sext i32 %34 to i64
  %36 = getelementptr inbounds [100 x double], [100 x double]* %4, i64 0, i64 %35
  %37 = call i32 (i8*, ...) @__isoc99_scanf(i8* getelementptr inbounds ([4 x i8], [4 x i8]* @.str.1, i64 0, i64 0), double* %36)
  store i32 0, i32* %9, align 4
  br label %38

38:                                               ; preds = %60, %33
  %39 = load i32, i32* %9, align 4
  %40 = sitofp i32 %39 to double
  %41 = load i32, i32* %8, align 4
  %42 = sext i32 %41 to i64
  %43 = getelementptr inbounds [100 x double], [100 x double]* %4, i64 0, i64 %42
  %44 = load double, double* %43, align 8
  %45 = fcmp olt double %40, %44
  br i1 %45, label %46, label %63

46:                                               ; preds = %38
  %47 = load i32, i32* %9, align 4
  %48 = sext i32 %47 to i64
  %49 = getelementptr inbounds [100 x double], [100 x double]* %3, i64 0, i64 %48
  %50 = call i32 (i8*, ...) @__isoc99_scanf(i8* getelementptr inbounds ([4 x i8], [4 x i8]* @.str.1, i64 0, i64 0), double* %49)
  %51 = load i32, i32* %9, align 4
  %52 = sext i32 %51 to i64
  %53 = getelementptr inbounds [100 x double], [100 x double]* %3, i64 0, i64 %52
  %54 = load double, double* %53, align 8
  %55 = load i32, i32* %8, align 4
  %56 = sext i32 %55 to i64
  %57 = getelementptr inbounds [100 x double], [100 x double]* %5, i64 0, i64 %56
  %58 = load double, double* %57, align 8
  %59 = fadd double %58, %54
  store double %59, double* %57, align 8
  br label %60

60:                                               ; preds = %46
  %61 = load i32, i32* %9, align 4
  %62 = add nsw i32 %61, 1
  store i32 %62, i32* %9, align 4
  br label %38

63:                                               ; preds = %38
  store i32 0, i32* %9, align 4
  br label %64

64:                                               ; preds = %106, %63
  %65 = load i32, i32* %9, align 4
  %66 = sitofp i32 %65 to double
  %67 = load i32, i32* %8, align 4
  %68 = sext i32 %67 to i64
  %69 = getelementptr inbounds [100 x double], [100 x double]* %4, i64 0, i64 %68
  %70 = load double, double* %69, align 8
  %71 = fcmp olt double %66, %70
  br i1 %71, label %72, label %109

72:                                               ; preds = %64
  %73 = load i32, i32* %9, align 4
  %74 = sext i32 %73 to i64
  %75 = getelementptr inbounds [100 x double], [100 x double]* %3, i64 0, i64 %74
  %76 = load double, double* %75, align 8
  %77 = load i32, i32* %8, align 4
  %78 = sext i32 %77 to i64
  %79 = getelementptr inbounds [100 x double], [100 x double]* %5, i64 0, i64 %78
  %80 = load double, double* %79, align 8
  %81 = load i32, i32* %8, align 4
  %82 = sext i32 %81 to i64
  %83 = getelementptr inbounds [100 x double], [100 x double]* %4, i64 0, i64 %82
  %84 = load double, double* %83, align 8
  %85 = fdiv double %80, %84
  %86 = fsub double %76, %85
  %87 = call double @pow(double %86, double 2.000000e+00) #3
  %88 = load i32, i32* %8, align 4
  %89 = sext i32 %88 to i64
  %90 = getelementptr inbounds [100 x double], [100 x double]* %6, i64 0, i64 %89
  %91 = load double, double* %90, align 8
  %92 = fadd double %91, %87
  store double %92, double* %90, align 8
  %93 = load i32, i32* %8, align 4
  %94 = sext i32 %93 to i64
  %95 = getelementptr inbounds [100 x double], [100 x double]* %6, i64 0, i64 %94
  %96 = load double, double* %95, align 8
  %97 = load i32, i32* %8, align 4
  %98 = sext i32 %97 to i64
  %99 = getelementptr inbounds [100 x double], [100 x double]* %4, i64 0, i64 %98
  %100 = load double, double* %99, align 8
  %101 = fdiv double %96, %100
  %102 = call double @sqrt(double %101) #3
  %103 = load i32, i32* %8, align 4
  %104 = sext i32 %103 to i64
  %105 = getelementptr inbounds [100 x double], [100 x double]* %7, i64 0, i64 %104
  store double %102, double* %105, align 8
  br label %106

106:                                              ; preds = %72
  %107 = load i32, i32* %9, align 4
  %108 = add nsw i32 %107, 1
  store i32 %108, i32* %9, align 4
  br label %64

109:                                              ; preds = %64
  br label %110

110:                                              ; preds = %109
  %111 = load i32, i32* %8, align 4
  %112 = add nsw i32 %111, 1
  store i32 %112, i32* %8, align 4
  br label %29

113:                                              ; preds = %29
  store i32 0, i32* %8, align 4
  br label %114

114:                                              ; preds = %124, %113
  %115 = load i32, i32* %8, align 4
  %116 = load i32, i32* %2, align 4
  %117 = icmp slt i32 %115, %116
  br i1 %117, label %118, label %127

118:                                              ; preds = %114
  %119 = load i32, i32* %8, align 4
  %120 = sext i32 %119 to i64
  %121 = getelementptr inbounds [100 x double], [100 x double]* %7, i64 0, i64 %120
  %122 = load double, double* %121, align 8
  %123 = call i32 (i8*, ...) @printf(i8* getelementptr inbounds ([7 x i8], [7 x i8]* @.str.2, i64 0, i64 0), double %122)
  br label %124

124:                                              ; preds = %118
  %125 = load i32, i32* %8, align 4
  %126 = add nsw i32 %125, 1
  store i32 %126, i32* %8, align 4
  br label %114

127:                                              ; preds = %114
  ret i32 0
}

declare dso_local i32 @__isoc99_scanf(i8*, ...) #1

; Function Attrs: nounwind
declare dso_local double @pow(double, double) #2

; Function Attrs: nounwind
declare dso_local double @sqrt(double) #2

declare dso_local i32 @printf(i8*, ...) #1


!llvm.module.flags = !{!0}
!llvm.ident = !{!1}

!0 = !{i32 1, !"wchar_size", i32 4}
!1 = !{!"clang version 10.0.0-4ubuntu1 "}
